; Function Attrs: mustprogress uwtable
define dso_local void @_ZN17cmOutputConverterC2ERK15cmStateSnapshot(ptr noundef nonnull align 8 dereferenceable(108) %0, ptr nocapture noundef nonnull readonly align 8 dereferenceable(24) %1) unnamed_addr #3 align 2 personality ptr @__gxx_personality_v0 {
  store ptr getelementptr inbounds ({ [5 x ptr] }, ptr @_ZTV17cmOutputConverter, i64 0, i32 0, i64 2), ptr %0, align 8
  %3 = getelementptr inbounds i8, ptr %0, i64 8
  tail call void @llvm.memcpy.p0.p0.i64(ptr noundef nonnull align 8 dereferenceable(24) %3, ptr noundef nonnull align 8 dereferenceable(24) %1, i64 24, i1 false)
  %4 = getelementptr inbounds i8, ptr %0, i64 32
  store i8 0, ptr %4, align 8
  %5 = getelementptr inbounds i8, ptr %0, i64 40
  tail call void @_ZNSt7__cxx1112basic_stringIcSt11char_traitsIcESaIcEEC1Ev(ptr noundef nonnull align 8 dereferenceable(32) %5) #18
  %6 = getelementptr inbounds i8, ptr %0, i64 72
  tail call void @_ZNSt7__cxx1112basic_stringIcSt11char_traitsIcESaIcEEC1Ev(ptr noundef nonnull align 8 dereferenceable(32) %6) #18
  %7 = getelementptr inbounds i8, ptr %0, i64 104
  store i32 0, ptr %7, align 8
  invoke void @_ZN17cmOutputConverter28ComputeRelativePathTopSourceEv(ptr noundef nonnull align 8 dereferenceable(108) %0)
          to label %8 unwind label %15

8:                                                ; preds = %2
  invoke void @_ZN17cmOutputConverter28ComputeRelativePathTopBinaryEv(ptr noundef nonnull align 8 dereferenceable(108) %0)
          to label %9 unwind label %15

9:                                                ; preds = %8
  %10 = invoke noundef zeroext i1 @_ZN5cmsys11SystemTools11ComparePathERKNSt7__cxx1112basic_stringIcSt11char_traitsIcESaIcEEES8_(ptr noundef nonnull align 8 dereferenceable(32) %5, ptr noundef nonnull align 8 dereferenceable(32) %6)
          to label %.noexc unwind label %15

.noexc:                                           ; preds = %9
  br i1 %10, label %_ZN17cmOutputConverter30ComputeRelativePathTopRelationEv.exit, label %11

11:                                               ; preds = %.noexc
  %12 = invoke noundef zeroext i1 @_ZN5cmsys11SystemTools14IsSubDirectoryERKNSt7__cxx1112basic_stringIcSt11char_traitsIcESaIcEEES8_(ptr noundef nonnull align 8 dereferenceable(32) %6, ptr noundef nonnull align 8 dereferenceable(32) %5)
          to label %.noexc3 unwind label %15

.noexc3:                                          ; preds = %11
  br i1 %12, label %_ZN17cmOutputConverter30ComputeRelativePathTopRelationEv.exit, label %13

13:                                               ; preds = %.noexc3
  %14 = invoke noundef zeroext i1 @_ZN5cmsys11SystemTools14IsSubDirectoryERKNSt7__cxx1112basic_stringIcSt11char_traitsIcESaIcEEES8_(ptr noundef nonnull align 8 dereferenceable(32) %5, ptr noundef nonnull align 8 dereferenceable(32) %6)
          to label %.noexc4 unwind label %15

.noexc4:                                          ; preds = %13
  %. = select i1 %14, i32 2, i32 0
  br label %_ZN17cmOutputConverter30ComputeRelativePathTopRelationEv.exit

_ZN17cmOutputConverter30ComputeRelativePathTopRelationEv.exit: ; preds = %.noexc4, %.noexc3, %.noexc
  %.sink = phi i32 [ 3, %.noexc ], [ 1, %.noexc3 ], [ %., %.noexc4 ]
  store i32 %.sink, ptr %7, align 8
  ret void

15:                                               ; preds = %13, %11, %9, %8, %2
  %16 = landingpad { ptr, i32 }
          cleanup
  tail call void @_ZNSt7__cxx1112basic_stringIcSt11char_traitsIcESaIcEED1Ev(ptr noundef nonnull align 8 dereferenceable(32) %6) #18
  tail call void @_ZNSt7__cxx1112basic_stringIcSt11char_traitsIcESaIcEED1Ev(ptr noundef nonnull align 8 dereferenceable(32) %5) #18
  resume { ptr, i32 } %16
}